target datalayout = "e-m:e-p270:32:32-p271:32:32-p272:64:64-i64:64-i128:128-f80:128-n8:16:32:64-S128"
target triple = "x86_64-pc-linux-gnu"

%struct.TupleDescData = type { i32, i32, i32, i32, ptr, [0 x %struct.CompactAttribute] }
%struct.CompactAttribute = type { i32, i16, i8, i8, i8, i8, i8, i8, i8 }
%struct.ExpandedRecordHeader = type { %struct.ExpandedObjectHeader, i32, i32, i32, i32, i32, ptr, i64, ptr, ptr, i32, i64, i64, i32, i8, ptr, ptr, ptr, ptr, ptr, ptr, %struct.MemoryContextCallback }
%struct.ExpandedObjectHeader = type { i32, ptr, ptr, [10 x i8], [10 x i8] }
%struct.MemoryContextCallback = type { ptr, ptr, ptr }
%struct.varattrib_1b = type { i8, [0 x i8] }

@.str.1 = private unnamed_addr constant [17 x i8] c"expandedrecord.c\00", align 1
@CurrentMemoryContext = external global ptr, align 8
@.str.3 = private unnamed_addr constant [45 x i8] c"cannot assign to field %d of expanded record\00", align 1
@__func__.check_domain_for_new_field = private unnamed_addr constant [27 x i8] c"check_domain_for_new_field\00", align 1

; Function Attrs: inlinehint nounwind uwtable
define internal i64 @PointerGetDatum(ptr noundef %0) #5 {
  %2 = alloca ptr, align 8
  store ptr %0, ptr %2, align 8
  %3 = load ptr, ptr %2, align 8
  %4 = ptrtoint ptr %3 to i64
  ret i64 %4
}

; Function Attrs: inlinehint nounwind uwtable
define internal i64 @EOHPGetRODatum(ptr noundef %0) #5 {
  %2 = alloca ptr, align 8
  store ptr %0, ptr %2, align 8
  %3 = load ptr, ptr %2, align 8
  %4 = getelementptr inbounds nuw %struct.ExpandedObjectHeader, ptr %3, i32 0, i32 4
  %5 = getelementptr inbounds [10 x i8], ptr %4, i64 0, i64 0
  %6 = call i64 @PointerGetDatum(ptr noundef %5)
  ret i64 %6
}

; Function Attrs: inlinehint nounwind uwtable
define internal i64 @ExpandedRecordGetRODatum(ptr noundef %0) #5 {
  %2 = alloca ptr, align 8
  store ptr %0, ptr %2, align 8
  %3 = load ptr, ptr %2, align 8
  %4 = getelementptr inbounds nuw %struct.ExpandedRecordHeader, ptr %3, i32 0, i32 0
  %5 = call i64 @EOHPGetRODatum(ptr noundef %4)
  ret i64 %5
}

; Function Attrs: inlinehint nounwind uwtable
define internal ptr @MemoryContextSwitchTo(ptr noundef %0) #5 {
  %2 = alloca ptr, align 8
  %3 = alloca ptr, align 8
  store ptr %0, ptr %2, align 8
  call void @llvm.lifetime.start.p0(i64 8, ptr %3) #9
  %4 = load ptr, ptr @CurrentMemoryContext, align 8
  store ptr %4, ptr %3, align 8
  %5 = load ptr, ptr %2, align 8
  store ptr %5, ptr @CurrentMemoryContext, align 8
  %6 = load ptr, ptr %3, align 8
  call void @llvm.lifetime.end.p0(i64 8, ptr %3) #9
  ret ptr %6
}

; Function Attrs: inlinehint nounwind uwtable
define internal ptr @DatumGetPointer(i64 noundef %0) #5 {
  %2 = alloca i64, align 8
  store i64 %0, ptr %2, align 8
  %3 = load i64, ptr %2, align 8
  %4 = inttoptr i64 %3 to ptr
  ret ptr %4
}

; Function Attrs: inlinehint nounwind uwtable
define internal ptr @TupleDescCompactAttr(ptr noundef %0, i32 noundef %1) #5 {
  %3 = alloca ptr, align 8
  %4 = alloca i32, align 4
  %5 = alloca ptr, align 8
  store ptr %0, ptr %3, align 8
  store i32 %1, ptr %4, align 4
  call void @llvm.lifetime.start.p0(i64 8, ptr %5) #9
  %6 = load ptr, ptr %3, align 8
  %7 = getelementptr inbounds nuw %struct.TupleDescData, ptr %6, i32 0, i32 5
  %8 = load i32, ptr %4, align 4
  %9 = sext i32 %8 to i64
  %10 = getelementptr inbounds [0 x %struct.CompactAttribute], ptr %7, i64 0, i64 %9
  store ptr %10, ptr %5, align 8
  %11 = load ptr, ptr %5, align 8
  call void @llvm.lifetime.end.p0(i64 8, ptr %5) #9
  ret ptr %11
}

; Function Attrs: noinline nounwind uwtable
define internal void @check_domain_for_new_field(ptr noundef %0, i32 noundef %1, i64 noundef %2, i1 noundef zeroext %3) #6 {
  %5 = alloca ptr, align 8
  %6 = alloca i32, align 4
  %7 = alloca i64, align 8
  %8 = alloca i8, align 1
  %9 = alloca ptr, align 8
  %10 = alloca ptr, align 8
  %11 = alloca ptr, align 8
  store ptr %0, ptr %5, align 8
  store i32 %1, ptr %6, align 4
  store i64 %2, ptr %7, align 8
  %12 = zext i1 %3 to i8
  store i8 %12, ptr %8, align 1
  call void @llvm.lifetime.start.p0(i64 8, ptr %9) #9
  call void @llvm.lifetime.start.p0(i64 8, ptr %10) #9
  %13 = load ptr, ptr %5, align 8
  call void @build_dummy_expanded_header(ptr noundef %13)
  %14 = load ptr, ptr %5, align 8
  %15 = getelementptr inbounds nuw %struct.ExpandedRecordHeader, ptr %14, i32 0, i32 19
  %16 = load ptr, ptr %15, align 8
  store ptr %16, ptr %9, align 8
  %17 = load ptr, ptr %5, align 8
  %18 = getelementptr inbounds nuw %struct.ExpandedRecordHeader, ptr %17, i32 0, i32 2
  %19 = load i32, ptr %18, align 4
  %20 = and i32 %19, 5
  %21 = icmp eq i32 %20, 0
  br i1 %21, label %54, label %22

22:                                               ; preds = %4
  %23 = load ptr, ptr %5, align 8
  call void @deconstruct_expanded_record(ptr noundef %23)
  %24 = load ptr, ptr %9, align 8
  %25 = getelementptr inbounds nuw %struct.ExpandedRecordHeader, ptr %24, i32 0, i32 8
  %26 = load ptr, ptr %25, align 8
  %27 = load ptr, ptr %5, align 8
  %28 = getelementptr inbounds nuw %struct.ExpandedRecordHeader, ptr %27, i32 0, i32 8
  %29 = load ptr, ptr %28, align 8
  %30 = load ptr, ptr %9, align 8
  %31 = getelementptr inbounds nuw %struct.ExpandedRecordHeader, ptr %30, i32 0, i32 10
  %32 = load i32, ptr %31, align 8
  %33 = sext i32 %32 to i64
  %34 = mul i64 %33, 8
  call void @llvm.memcpy.p0.p0.i64(ptr align 8 %26, ptr align 8 %29, i64 %34, i1 false)
  %35 = load ptr, ptr %9, align 8
  %36 = getelementptr inbounds nuw %struct.ExpandedRecordHeader, ptr %35, i32 0, i32 9
  %37 = load ptr, ptr %36, align 8
  %38 = load ptr, ptr %5, align 8
  %39 = getelementptr inbounds nuw %struct.ExpandedRecordHeader, ptr %38, i32 0, i32 9
  %40 = load ptr, ptr %39, align 8
  %41 = load ptr, ptr %9, align 8
  %42 = getelementptr inbounds nuw %struct.ExpandedRecordHeader, ptr %41, i32 0, i32 10
  %43 = load i32, ptr %42, align 8
  %44 = sext i32 %43 to i64
  %45 = mul i64 %44, 1
  call void @llvm.memcpy.p0.p0.i64(ptr align 1 %37, ptr align 1 %40, i64 %45, i1 false)
  %46 = load ptr, ptr %5, align 8
  %47 = getelementptr inbounds nuw %struct.ExpandedRecordHeader, ptr %46, i32 0, i32 2
  %48 = load i32, ptr %47, align 4
  %49 = and i32 %48, 16
  %50 = load ptr, ptr %9, align 8
  %51 = getelementptr inbounds nuw %struct.ExpandedRecordHeader, ptr %50, i32 0, i32 2
  %52 = load i32, ptr %51, align 4
  %53 = or i32 %52, %49
  store i32 %53, ptr %51, align 4
  br label %71

54:                                               ; preds = %4
  %55 = load ptr, ptr %9, align 8
  %56 = getelementptr inbounds nuw %struct.ExpandedRecordHeader, ptr %55, i32 0, i32 8
  %57 = load ptr, ptr %56, align 8
  %58 = load ptr, ptr %9, align 8
  %59 = getelementptr inbounds nuw %struct.ExpandedRecordHeader, ptr %58, i32 0, i32 10
  %60 = load i32, ptr %59, align 8
  %61 = sext i32 %60 to i64
  %62 = mul i64 %61, 8
  call void @llvm.memset.p0.i64(ptr align 8 %57, i8 0, i64 %62, i1 false)
  %63 = load ptr, ptr %9, align 8
  %64 = getelementptr inbounds nuw %struct.ExpandedRecordHeader, ptr %63, i32 0, i32 9
  %65 = load ptr, ptr %64, align 8
  %66 = load ptr, ptr %9, align 8
  %67 = getelementptr inbounds nuw %struct.ExpandedRecordHeader, ptr %66, i32 0, i32 10
  %68 = load i32, ptr %67, align 8
  %69 = sext i32 %68 to i64
  %70 = mul i64 %69, 1
  call void @llvm.memset.p0.i64(ptr align 1 %65, i8 1, i64 %70, i1 false)
  br label %71

71:                                               ; preds = %54, %22
  %72 = load ptr, ptr %9, align 8
  %73 = getelementptr inbounds nuw %struct.ExpandedRecordHeader, ptr %72, i32 0, i32 2
  %74 = load i32, ptr %73, align 4
  %75 = or i32 %74, 4
  store i32 %75, ptr %73, align 4
  %76 = load i32, ptr %6, align 4
  %77 = icmp sle i32 %76, 0
  br i1 %77, label %84, label %78

78:                                               ; preds = %71
  %79 = load i32, ptr %6, align 4
  %80 = load ptr, ptr %9, align 8
  %81 = getelementptr inbounds nuw %struct.ExpandedRecordHeader, ptr %80, i32 0, i32 10
  %82 = load i32, ptr %81, align 8
  %83 = icmp sgt i32 %79, %82
  br label %84

84:                                               ; preds = %78, %71
  %85 = phi i1 [ true, %71 ], [ %83, %78 ]
  %86 = zext i1 %85 to i32
  %87 = icmp ne i32 %86, 0
  %88 = zext i1 %87 to i32
  %89 = sext i32 %88 to i64
  %90 = call i64 @llvm.expect.i64(i64 %89, i64 0)
  %91 = icmp ne i64 %90, 0
  br i1 %91, label %92, label %104

92:                                               ; preds = %84
  br label %93

93:                                               ; preds = %92
  br i1 true, label %94, label %96

94:                                               ; preds = %93
  %95 = call zeroext i1 @errstart_cold(i32 noundef 21, ptr noundef null) #10
  br i1 %95, label %98, label %101

96:                                               ; preds = %93
  %97 = call zeroext i1 @errstart(i32 noundef 21, ptr noundef null)
  br i1 %97, label %98, label %101

98:                                               ; preds = %96, %94
  %99 = load i32, ptr %6, align 4
  %100 = call i32 (ptr, ...) @errmsg_internal(ptr noundef @.str.3, i32 noundef %99)
  call void @errfinish(ptr noundef @.str.1, i32 noundef 1530, ptr noundef @__func__.check_domain_for_new_field)
  br label %101

101:                                              ; preds = %98, %96, %94
  unreachable

102:                                              ; No predecessors!
  br label %103

103:                                              ; preds = %102
  br label %104

104:                                              ; preds = %103, %84
  %105 = load i64, ptr %7, align 8
  %106 = load ptr, ptr %9, align 8
  %107 = getelementptr inbounds nuw %struct.ExpandedRecordHeader, ptr %106, i32 0, i32 8
  %108 = load ptr, ptr %107, align 8
  %109 = load i32, ptr %6, align 4
  %110 = sub i32 %109, 1
  %111 = sext i32 %110 to i64
  %112 = getelementptr inbounds i64, ptr %108, i64 %111
  store i64 %105, ptr %112, align 8
  %113 = load i8, ptr %8, align 1, !range !4, !noundef !5
  %114 = trunc i8 %113 to i1
  %115 = load ptr, ptr %9, align 8
  %116 = getelementptr inbounds nuw %struct.ExpandedRecordHeader, ptr %115, i32 0, i32 9
  %117 = load ptr, ptr %116, align 8
  %118 = load i32, ptr %6, align 4
  %119 = sub i32 %118, 1
  %120 = sext i32 %119 to i64
  %121 = getelementptr inbounds i8, ptr %117, i64 %120
  %122 = zext i1 %114 to i8
  store i8 %122, ptr %121, align 1
  %123 = load i8, ptr %8, align 1, !range !4, !noundef !5
  %124 = trunc i8 %123 to i1
  br i1 %124, label %155, label %125

125:                                              ; preds = %104
  call void @llvm.lifetime.start.p0(i64 8, ptr %11) #9
  %126 = load ptr, ptr %5, align 8
  %127 = getelementptr inbounds nuw %struct.ExpandedRecordHeader, ptr %126, i32 0, i32 6
  %128 = load ptr, ptr %127, align 8
  %129 = load i32, ptr %6, align 4
  %130 = sub i32 %129, 1
  %131 = call ptr @TupleDescCompactAttr(ptr noundef %128, i32 noundef %130)
  store ptr %131, ptr %11, align 8
  %132 = load ptr, ptr %11, align 8
  %133 = getelementptr inbounds nuw %struct.CompactAttribute, ptr %132, i32 0, i32 2
  %134 = load i8, ptr %133, align 2, !range !4, !noundef !5
  %135 = trunc i8 %134 to i1
  br i1 %135, label %154, label %136

136:                                              ; preds = %125
  %137 = load ptr, ptr %11, align 8
  %138 = getelementptr inbounds nuw %struct.CompactAttribute, ptr %137, i32 0, i32 1
  %139 = load i16, ptr %138, align 4
  %140 = sext i16 %139 to i32
  %141 = icmp eq i32 %140, -1
  br i1 %141, label %142, label %154

142:                                              ; preds = %136
  %143 = load i64, ptr %7, align 8
  %144 = call ptr @DatumGetPointer(i64 noundef %143)
  %145 = getelementptr inbounds nuw %struct.varattrib_1b, ptr %144, i32 0, i32 0
  %146 = load i8, ptr %145, align 1
  %147 = zext i8 %146 to i32
  %148 = icmp eq i32 %147, 1
  br i1 %148, label %149, label %154

149:                                              ; preds = %142
  %150 = load ptr, ptr %9, align 8
  %151 = getelementptr inbounds nuw %struct.ExpandedRecordHeader, ptr %150, i32 0, i32 2
  %152 = load i32, ptr %151, align 4
  %153 = or i32 %152, 16
  store i32 %153, ptr %151, align 4
  br label %154

154:                                              ; preds = %149, %142, %136, %125
  call void @llvm.lifetime.end.p0(i64 8, ptr %11) #9
  br label %155

155:                                              ; preds = %154, %104
  %156 = load ptr, ptr %5, align 8
  %157 = getelementptr inbounds nuw %struct.ExpandedRecordHeader, ptr %156, i32 0, i32 18
  %158 = load ptr, ptr %157, align 8
  %159 = call ptr @MemoryContextSwitchTo(ptr noundef %158)
  store ptr %159, ptr %10, align 8
  %160 = load ptr, ptr %9, align 8
  %161 = call i64 @ExpandedRecordGetRODatum(ptr noundef %160)
  %162 = load ptr, ptr %5, align 8
  %163 = getelementptr inbounds nuw %struct.ExpandedRecordHeader, ptr %162, i32 0, i32 3
  %164 = load i32, ptr %163, align 8
  %165 = load ptr, ptr %5, align 8
  %166 = getelementptr inbounds nuw %struct.ExpandedRecordHeader, ptr %165, i32 0, i32 20
  %167 = load ptr, ptr %5, align 8
  %168 = getelementptr inbounds nuw %struct.ExpandedRecordHeader, ptr %167, i32 0, i32 0
  %169 = getelementptr inbounds nuw %struct.ExpandedObjectHeader, ptr %168, i32 0, i32 2
  %170 = load ptr, ptr %169, align 8
  call void @domain_check(i64 noundef %161, i1 noundef zeroext false, i32 noundef %164, ptr noundef %166, ptr noundef %170)
  %171 = load ptr, ptr %10, align 8
  %172 = call ptr @MemoryContextSwitchTo(ptr noundef %171)
  %173 = load ptr, ptr %5, align 8
  %174 = getelementptr inbounds nuw %struct.ExpandedRecordHeader, ptr %173, i32 0, i32 18
  %175 = load ptr, ptr %174, align 8
  call void @MemoryContextReset(ptr noundef %175)
  call void @llvm.lifetime.end.p0(i64 8, ptr %10) #9
  call void @llvm.lifetime.end.p0(i64 8, ptr %9) #9
  ret void
}