; Function Attrs: noinline nounwind uwtable
define internal fastcc void @check_domain_for_new_field(ptr noundef %0, i32 noundef %1, i64 noundef %2, i1 noundef zeroext %3) unnamed_addr #5 {
  %5 = zext i1 %3 to i8
  tail call fastcc void @build_dummy_expanded_header(ptr noundef %0)
  %6 = getelementptr inbounds nuw i8, ptr %0, i64 168
  %7 = load ptr, ptr %6, align 8
  %8 = getelementptr inbounds nuw i8, ptr %0, i64 52
  %9 = load i32, ptr %8, align 4
  %10 = and i32 %9, 5
  %11 = icmp eq i32 %10, 0
  br i1 %11, label %32, label %12

12:                                               ; preds = %4
  tail call void @deconstruct_expanded_record(ptr noundef nonnull %0)
  %13 = getelementptr inbounds nuw i8, ptr %7, i64 88
  %14 = load ptr, ptr %13, align 8
  %15 = getelementptr inbounds nuw i8, ptr %0, i64 88
  %16 = load ptr, ptr %15, align 8
  %17 = getelementptr inbounds nuw i8, ptr %7, i64 104
  %18 = load i32, ptr %17, align 8
  %19 = sext i32 %18 to i64
  %20 = shl nsw i64 %19, 3
  tail call void @llvm.memcpy.p0.p0.i64(ptr align 8 %14, ptr align 8 %16, i64 %20, i1 false)
  %21 = getelementptr inbounds nuw i8, ptr %7, i64 96
  %22 = load ptr, ptr %21, align 8
  %23 = getelementptr inbounds nuw i8, ptr %0, i64 96
  %24 = load ptr, ptr %23, align 8
  %25 = load i32, ptr %17, align 8
  %26 = sext i32 %25 to i64
  tail call void @llvm.memcpy.p0.p0.i64(ptr align 1 %22, ptr align 1 %24, i64 %26, i1 false)
  %27 = load i32, ptr %8, align 4
  %28 = and i32 %27, 16
  %29 = getelementptr inbounds nuw i8, ptr %7, i64 52
  %30 = load i32, ptr %29, align 4
  %31 = or i32 %30, %28
  br label %43

32:                                               ; preds = %4
  %33 = getelementptr inbounds nuw i8, ptr %7, i64 88
  %34 = load ptr, ptr %33, align 8
  %35 = getelementptr inbounds nuw i8, ptr %7, i64 104
  %36 = load i32, ptr %35, align 8
  %37 = sext i32 %36 to i64
  %38 = shl nsw i64 %37, 3
  tail call void @llvm.memset.p0.i64(ptr align 8 %34, i8 0, i64 %38, i1 false)
  %39 = getelementptr inbounds nuw i8, ptr %7, i64 96
  %40 = load ptr, ptr %39, align 8
  %41 = load i32, ptr %35, align 8
  %42 = sext i32 %41 to i64
  tail call void @llvm.memset.p0.i64(ptr align 1 %40, i8 1, i64 %42, i1 false)
  %.phi.trans.insert = getelementptr inbounds nuw i8, ptr %7, i64 52
  %.pre = load i32, ptr %.phi.trans.insert, align 4
  br label %43

43:                                               ; preds = %32, %12
  %44 = phi i32 [ %.pre, %32 ], [ %31, %12 ]
  %45 = getelementptr inbounds nuw i8, ptr %7, i64 52
  %46 = or i32 %44, 4
  store i32 %46, ptr %45, align 4
  %47 = icmp slt i32 %1, 1
  br i1 %47, label %.critedge, label %48

48:                                               ; preds = %43
  %49 = getelementptr inbounds nuw i8, ptr %7, i64 104
  %50 = load i32, ptr %49, align 8
  %51 = icmp sgt i32 %1, %50
  br i1 %51, label %.critedge, label %54, !prof !4

.critedge:                                        ; preds = %43, %48
  %52 = tail call zeroext i1 @errstart_cold(i32 noundef 21, ptr noundef null) #9
  tail call void @llvm.assume(i1 %52)
  %53 = tail call i32 (ptr, ...) @errmsg_internal(ptr noundef nonnull @.str.3, i32 noundef %1) #8
  tail call void @errfinish(ptr noundef nonnull @.str.1, i32 noundef 1530, ptr noundef nonnull @__func__.check_domain_for_new_field) #8
  unreachable

54:                                               ; preds = %48
  %55 = getelementptr inbounds nuw i8, ptr %7, i64 88
  %56 = load ptr, ptr %55, align 8
  %57 = add nsw i32 %1, -1
  %58 = zext nneg i32 %57 to i64
  %59 = getelementptr inbounds nuw i64, ptr %56, i64 %58
  store i64 %2, ptr %59, align 8
  %60 = getelementptr inbounds nuw i8, ptr %7, i64 96
  %61 = load ptr, ptr %60, align 8
  %62 = getelementptr inbounds nuw i8, ptr %61, i64 %58
  store i8 %5, ptr %62, align 1
  br i1 %3, label %82, label %63

63:                                               ; preds = %54
  %64 = getelementptr inbounds nuw i8, ptr %0, i64 72
  %65 = load ptr, ptr %64, align 8
  %66 = getelementptr inbounds nuw i8, ptr %65, i64 24
  %67 = getelementptr inbounds nuw [0 x %struct.CompactAttribute], ptr %66, i64 0, i64 %58
  %68 = getelementptr inbounds nuw i8, ptr %67, i64 6
  %69 = load i8, ptr %68, align 2, !range !5, !noundef !6
  %70 = trunc nuw i8 %69 to i1
  br i1 %70, label %82, label %71

71:                                               ; preds = %63
  %72 = getelementptr inbounds nuw i8, ptr %67, i64 4
  %73 = load i16, ptr %72, align 4
  %74 = icmp eq i16 %73, -1
  br i1 %74, label %75, label %82

75:                                               ; preds = %71
  %76 = inttoptr i64 %2 to ptr
  %77 = load i8, ptr %76, align 1
  %78 = icmp eq i8 %77, 1
  br i1 %78, label %79, label %82

79:                                               ; preds = %75
  %80 = load i32, ptr %45, align 4
  %81 = or i32 %80, 16
  store i32 %81, ptr %45, align 4
  br label %82

82:                                               ; preds = %63, %71, %75, %79, %54
  %83 = getelementptr inbounds nuw i8, ptr %0, i64 160
  %84 = load ptr, ptr %83, align 8
  %85 = load ptr, ptr @CurrentMemoryContext, align 8
  store ptr %84, ptr @CurrentMemoryContext, align 8
  %86 = getelementptr inbounds nuw i8, ptr %7, i64 34
  %87 = ptrtoint ptr %86 to i64
  %88 = getelementptr inbounds nuw i8, ptr %0, i64 56
  %89 = load i32, ptr %88, align 8
  %90 = getelementptr inbounds nuw i8, ptr %0, i64 176
  %91 = getelementptr inbounds nuw i8, ptr %0, i64 16
  %92 = load ptr, ptr %91, align 8
  tail call void @domain_check(i64 noundef %87, i1 noundef zeroext false, i32 noundef %89, ptr noundef nonnull %90, ptr noundef %92) #8
  store ptr %85, ptr @CurrentMemoryContext, align 8
  %93 = load ptr, ptr %83, align 8
  tail call void @MemoryContextReset(ptr noundef %93) #8
  ret void
}